(dp1
V2013/06/11/01-arp2.html
p2
Varp2.
p3
sV2016/03/01/01-woes6.html
p4
Vwoes6.
p5
sV2014/01/18/02-woes3.html
p6
Vwoes3.
p7
sV2014/01/30/01-yaxim.html
p8
Vyaxim.
p9
sV2014/01/18/01-woes2.html
p10
Vwoes2.
p11
sV2014/07/10/01-woes5.html
p12
Vwoes5.
p13
sV2013/06/10/01-arp.html
p14
Varp.
p15
sV2014/01/16/01-woes.html
p16
Vwoes.
p17
sV2014/01/21/01-woes4.html
p18
Vwoes4.
p19
sV2014/01/07/01-arp3.html
p20
Varp3.
p21
sV2014/01/29/01-op-co.de.html
p22
Vop-co.de.
p23
s.