(dp1
V2013/06/11/01-arp2.html
p2
Varp2.
p3
sV2014/01/18/02-woes3.html
p4
Vwoes3.
p5
sV2014/01/30/01-yaxim.html
p6
Vyaxim.
p7
sV2014/01/18/01-woes2.html
p8
Vwoes2.
p9
sV2013/06/10/01-arp.html
p10
Varp.
p11
sV2014/01/16/01-woes.html
p12
Vwoes.
p13
sV2014/01/21/01-woes4.html
p14
Vwoes4.
p15
sV2014/01/07/01-arp3.html
p16
Varp3.
p17
sV2014/01/29/01-op-co.de.html
p18
Vop-co.de.
p19
s.