(dp1
V2013/06/11/01-arp2.html
p2
Varp2.
p3
sV2014/01/18/02-woes3.html
p4
Vwoes3.
p5
sV2014/01/18/01-woes2.html
p6
Vwoes2.
p7
sV2013/06/10/01-arp.html
p8
Varp.
p9
sV2014/01/16/01-woes.html
p10
Vwoes.
p11
sV2014/01/07/01-arp3.html
p12
Varp3.
p13
s.