(dp1
V2014/01/20/01-more.html
p2
Vmore.
p3
sV2014/01/18/02-woes3.html
p4
Vwoes3.
p5
sV2014/01/18/01-woes2.html
p6
Vwoes2.
p7
sV2014/01/16/01-woes.html
p8
Vwoes.
p9
sV2014/01/21/01-woes4.html
p10
Vwoes4.
p11
sV2014/01/29/01-op-co.de.html
p12
Vop-co.de.
p13
s.