(dp1
V2014/01/16/01-woes.html
p2
Vwoes.
p3
sV2014/01/18/02-woes3.html
p4
Vwoes3.
p5
sV2014/01/20/01-more.html
p6
Vmore.
p7
sV2014/01/18/01-woes2.html
p8
Vwoes2.
p9
sV2014/01/21/01-woes4.html
p10
Vwoes4.
p11
s.